; ModuleID = '14/476.c'
source_filename = "14/476.c"
target datalayout = "e-m:e-p270:32:32-p271:32:32-p272:64:64-i64:64-f80:128-n8:16:32:64-S128"
target triple = "x86_64-pc-linux-gnu"

%struct.student = type { [100 x i8], i32, i32, i32 }

@.str = private unnamed_addr constant [3 x i8] c"%d\00", align 1
@.str.1 = private unnamed_addr constant [3 x i8] c"%s\00", align 1
@.str.2 = private unnamed_addr constant [6 x i8] c"%d %d\00", align 1
@.str.3 = private unnamed_addr constant [7 x i8] c"%s %d\0A\00", align 1

; Function Attrs: noinline nounwind uwtable
define dso_local i32 @main() #0 {
  %1 = alloca i32, align 4
  %2 = alloca i32, align 4
  %3 = alloca i32, align 4
  %4 = alloca i32, align 4
  %5 = alloca i32, align 4
  %6 = alloca i32, align 4
  %7 = alloca [100000 x %struct.student], align 16
  %8 = alloca %struct.student, align 4
  store i32 0, i32* %1, align 4
  %9 = call i32 (i8*, ...) @__isoc99_scanf(i8* getelementptr inbounds ([3 x i8], [3 x i8]* @.str, i64 0, i64 0), i32* %2)
  store i32 0, i32* %3, align 4
  br label %10

10:                                               ; preds = %45, %0
  %11 = load i32, i32* %3, align 4
  %12 = load i32, i32* %2, align 4
  %13 = icmp slt i32 %11, %12
  br i1 %13, label %14, label %48

14:                                               ; preds = %10
  %15 = load i32, i32* %3, align 4
  %16 = sext i32 %15 to i64
  %17 = getelementptr inbounds [100000 x %struct.student], [100000 x %struct.student]* %7, i64 0, i64 %16
  %18 = getelementptr inbounds %struct.student, %struct.student* %17, i32 0, i32 0
  %19 = getelementptr inbounds [100 x i8], [100 x i8]* %18, i64 0, i64 0
  %20 = call i32 (i8*, ...) @__isoc99_scanf(i8* getelementptr inbounds ([3 x i8], [3 x i8]* @.str.1, i64 0, i64 0), i8* %19)
  %21 = load i32, i32* %3, align 4
  %22 = sext i32 %21 to i64
  %23 = getelementptr inbounds [100000 x %struct.student], [100000 x %struct.student]* %7, i64 0, i64 %22
  %24 = getelementptr inbounds %struct.student, %struct.student* %23, i32 0, i32 1
  %25 = load i32, i32* %3, align 4
  %26 = sext i32 %25 to i64
  %27 = getelementptr inbounds [100000 x %struct.student], [100000 x %struct.student]* %7, i64 0, i64 %26
  %28 = getelementptr inbounds %struct.student, %struct.student* %27, i32 0, i32 2
  %29 = call i32 (i8*, ...) @__isoc99_scanf(i8* getelementptr inbounds ([6 x i8], [6 x i8]* @.str.2, i64 0, i64 0), i32* %24, i32* %28)
  %30 = load i32, i32* %3, align 4
  %31 = sext i32 %30 to i64
  %32 = getelementptr inbounds [100000 x %struct.student], [100000 x %struct.student]* %7, i64 0, i64 %31
  %33 = getelementptr inbounds %struct.student, %struct.student* %32, i32 0, i32 1
  %34 = load i32, i32* %33, align 4
  %35 = load i32, i32* %3, align 4
  %36 = sext i32 %35 to i64
  %37 = getelementptr inbounds [100000 x %struct.student], [100000 x %struct.student]* %7, i64 0, i64 %36
  %38 = getelementptr inbounds %struct.student, %struct.student* %37, i32 0, i32 2
  %39 = load i32, i32* %38, align 8
  %40 = add nsw i32 %34, %39
  %41 = load i32, i32* %3, align 4
  %42 = sext i32 %41 to i64
  %43 = getelementptr inbounds [100000 x %struct.student], [100000 x %struct.student]* %7, i64 0, i64 %42
  %44 = getelementptr inbounds %struct.student, %struct.student* %43, i32 0, i32 3
  store i32 %40, i32* %44, align 4
  br label %45

45:                                               ; preds = %14
  %46 = load i32, i32* %3, align 4
  %47 = add nsw i32 %46, 1
  store i32 %47, i32* %3, align 4
  br label %10

48:                                               ; preds = %10
  store i32 1, i32* %4, align 4
  br label %49

49:                                               ; preds = %98, %48
  %50 = load i32, i32* %4, align 4
  %51 = icmp slt i32 %50, 4
  br i1 %51, label %52, label %101

52:                                               ; preds = %49
  store i32 0, i32* %6, align 4
  br label %53

53:                                               ; preds = %94, %52
  %54 = load i32, i32* %6, align 4
  %55 = load i32, i32* %2, align 4
  %56 = load i32, i32* %4, align 4
  %57 = sub nsw i32 %55, %56
  %58 = icmp slt i32 %54, %57
  br i1 %58, label %59, label %97

59:                                               ; preds = %53
  %60 = load i32, i32* %6, align 4
  %61 = sext i32 %60 to i64
  %62 = getelementptr inbounds [100000 x %struct.student], [100000 x %struct.student]* %7, i64 0, i64 %61
  %63 = getelementptr inbounds %struct.student, %struct.student* %62, i32 0, i32 3
  %64 = load i32, i32* %63, align 4
  %65 = load i32, i32* %6, align 4
  %66 = add nsw i32 %65, 1
  %67 = sext i32 %66 to i64
  %68 = getelementptr inbounds [100000 x %struct.student], [100000 x %struct.student]* %7, i64 0, i64 %67
  %69 = getelementptr inbounds %struct.student, %struct.student* %68, i32 0, i32 3
  %70 = load i32, i32* %69, align 4
  %71 = icmp sge i32 %64, %70
  br i1 %71, label %72, label %93

72:                                               ; preds = %59
  %73 = load i32, i32* %6, align 4
  %74 = sext i32 %73 to i64
  %75 = getelementptr inbounds [100000 x %struct.student], [100000 x %struct.student]* %7, i64 0, i64 %74
  %76 = bitcast %struct.student* %8 to i8*
  %77 = bitcast %struct.student* %75 to i8*
  call void @llvm.memcpy.p0i8.p0i8.i64(i8* align 4 %76, i8* align 16 %77, i64 112, i1 false)
  %78 = load i32, i32* %6, align 4
  %79 = sext i32 %78 to i64
  %80 = getelementptr inbounds [100000 x %struct.student], [100000 x %struct.student]* %7, i64 0, i64 %79
  %81 = load i32, i32* %6, align 4
  %82 = add nsw i32 %81, 1
  %83 = sext i32 %82 to i64
  %84 = getelementptr inbounds [100000 x %struct.student], [100000 x %struct.student]* %7, i64 0, i64 %83
  %85 = bitcast %struct.student* %80 to i8*
  %86 = bitcast %struct.student* %84 to i8*
  call void @llvm.memcpy.p0i8.p0i8.i64(i8* align 16 %85, i8* align 16 %86, i64 112, i1 false)
  %87 = load i32, i32* %6, align 4
  %88 = add nsw i32 %87, 1
  %89 = sext i32 %88 to i64
  %90 = getelementptr inbounds [100000 x %struct.student], [100000 x %struct.student]* %7, i64 0, i64 %89
  %91 = bitcast %struct.student* %90 to i8*
  %92 = bitcast %struct.student* %8 to i8*
  call void @llvm.memcpy.p0i8.p0i8.i64(i8* align 16 %91, i8* align 4 %92, i64 112, i1 false)
  br label %93

93:                                               ; preds = %72, %59
  br label %94

94:                                               ; preds = %93
  %95 = load i32, i32* %6, align 4
  %96 = add nsw i32 %95, 1
  store i32 %96, i32* %6, align 4
  br label %53

97:                                               ; preds = %53
  br label %98

98:                                               ; preds = %97
  %99 = load i32, i32* %4, align 4
  %100 = add nsw i32 %99, 1
  store i32 %100, i32* %4, align 4
  br label %49

101:                                              ; preds = %49
  %102 = load i32, i32* %2, align 4
  %103 = sub nsw i32 %102, 1
  store i32 %103, i32* %5, align 4
  br label %104

104:                                              ; preds = %121, %101
  %105 = load i32, i32* %5, align 4
  %106 = load i32, i32* %2, align 4
  %107 = sub nsw i32 %106, 4
  %108 = icmp sgt i32 %105, %107
  br i1 %108, label %109, label %124

109:                                              ; preds = %104
  %110 = load i32, i32* %5, align 4
  %111 = sext i32 %110 to i64
  %112 = getelementptr inbounds [100000 x %struct.student], [100000 x %struct.student]* %7, i64 0, i64 %111
  %113 = getelementptr inbounds %struct.student, %struct.student* %112, i32 0, i32 0
  %114 = getelementptr inbounds [100 x i8], [100 x i8]* %113, i64 0, i64 0
  %115 = load i32, i32* %5, align 4
  %116 = sext i32 %115 to i64
  %117 = getelementptr inbounds [100000 x %struct.student], [100000 x %struct.student]* %7, i64 0, i64 %116
  %118 = getelementptr inbounds %struct.student, %struct.student* %117, i32 0, i32 3
  %119 = load i32, i32* %118, align 4
  %120 = call i32 (i8*, ...) @printf(i8* getelementptr inbounds ([7 x i8], [7 x i8]* @.str.3, i64 0, i64 0), i8* %114, i32 %119)
  br label %121

121:                                              ; preds = %109
  %122 = load i32, i32* %5, align 4
  %123 = add nsw i32 %122, -1
  store i32 %123, i32* %5, align 4
  br label %104

124:                                              ; preds = %104
  ret i32 0
}

declare dso_local i32 @__isoc99_scanf(i8*, ...) #1

; Function Attrs: argmemonly nounwind willreturn
declare void @llvm.memcpy.p0i8.p0i8.i64(i8* noalias nocapture writeonly, i8* noalias nocapture readonly, i64, i1 immarg) #2

declare dso_local i32 @printf(i8*, ...) #1


!llvm.module.flags = !{!0}
!llvm.ident = !{!1}

!0 = !{i32 1, !"wchar_size", i32 4}
!1 = !{!"clang version 10.0.0-4ubuntu1 "}
